	.file	"sim.c"
	.text
.Ltext0:
	.p2align 4
	.type	simulate._omp_fn.0, @function
simulate._omp_fn.0:
.LVL0:
.LFB60:
	.file 1 "sim.c"
	.loc 1 147 13 view -0
	.cfi_startproc
	.loc 1 147 13 is_stmt 0 view .LVU1
	endbr64
	pushq	%r14
	.cfi_def_cfa_offset 16
	.cfi_offset 14, -16
	pushq	%r13
	.cfi_def_cfa_offset 24
	.cfi_offset 13, -24
	movq	(%rdi), %r13
.LVL1:
	.loc 1 147 13 view .LVU2
	pushq	%r12
	.cfi_def_cfa_offset 32
	.cfi_offset 12, -32
	pushq	%rbp
	.cfi_def_cfa_offset 40
	.cfi_offset 6, -40
	pushq	%rbx
	.cfi_def_cfa_offset 48
	.cfi_offset 3, -48
	call	omp_get_num_threads@PLT
.LVL2:
	.loc 1 147 13 view .LVU3
	movl	%eax, %ebp
	call	omp_get_thread_num@PLT
.LVL3:
	movl	%eax, %ebx
.LBB12:
	.loc 1 147 13 view .LVU4
	movl	24(%r13), %eax
	addl	$1, %eax
	cltd
	idivl	%ebp
	cmpl	%edx, %ebx
	jl	.L2
.L5:
	imull	%eax, %ebx
	addl	%edx, %ebx
	leal	(%rax,%rbx), %r12d
	cmpl	%r12d, %ebx
	jge	.L1
	movslq	%ebx, %rbp
	salq	$3, %rbp
	.p2align 4,,10
	.p2align 3
.L4:
.LVL4:
	.loc 1 150 9 is_stmt 1 discriminator 1 view .LVU5
	.loc 1 150 16 is_stmt 0 discriminator 1 view .LVU6
	movq	0(%r13), %r14
	.loc 1 150 30 discriminator 1 view .LVU7
	pxor	%xmm0, %xmm0
	cvtsi2sdl	%ebx, %xmm0
	addl	$1, %ebx
.LVL5:
	.loc 1 150 22 discriminator 1 view .LVU8
	divsd	72(%r13), %xmm0
	call	mweight@PLT
.LVL6:
	.loc 1 150 16 discriminator 1 view .LVU9
	addq	%rbp, %r14
	addq	$8, %rbp
	.loc 1 150 20 discriminator 1 view .LVU10
	movsd	%xmm0, (%r14)
	cmpl	%ebx, %r12d
	jne	.L4
.LVL7:
.L1:
	.loc 1 150 20 discriminator 1 view .LVU11
.LBE12:
	.loc 1 147 13 view .LVU12
	popq	%rbx
	.cfi_remember_state
	.cfi_def_cfa_offset 40
	popq	%rbp
	.cfi_def_cfa_offset 32
	popq	%r12
	.cfi_def_cfa_offset 24
	popq	%r13
	.cfi_def_cfa_offset 16
.LVL8:
	.loc 1 147 13 view .LVU13
	popq	%r14
	.cfi_def_cfa_offset 8
	ret
.LVL9:
	.p2align 4,,10
	.p2align 3
.L2:
	.cfi_restore_state
	.loc 1 147 13 view .LVU14
	addl	$1, %eax
.LBB13:
	.loc 1 147 13 discriminator 1 view .LVU15
	xorl	%edx, %edx
	jmp	.L5
.LBE13:
	.cfi_endproc
.LFE60:
	.size	simulate._omp_fn.0, .-simulate._omp_fn.0
	.p2align 4
	.type	process_batch._omp_fn.0, @function
process_batch._omp_fn.0:
.LVL10:
.LFB61:
	.loc 1 92 13 is_stmt 1 view -0
	.cfi_startproc
	.loc 1 92 13 is_stmt 0 view .LVU17
	endbr64
	pushq	%r15
	.cfi_def_cfa_offset 16
	.cfi_offset 15, -16
	pushq	%r14
	.cfi_def_cfa_offset 24
	.cfi_offset 14, -24
	pushq	%r13
	.cfi_def_cfa_offset 32
	.cfi_offset 13, -32
	pushq	%r12
	.cfi_def_cfa_offset 40
	.cfi_offset 12, -40
	pushq	%rbp
	.cfi_def_cfa_offset 48
	.cfi_offset 6, -48
	pushq	%rbx
	.cfi_def_cfa_offset 56
	.cfi_offset 3, -56
	subq	$24, %rsp
	.cfi_def_cfa_offset 80
	.loc 1 92 13 view .LVU18
	movl	12(%rdi), %eax
	movq	(%rdi), %rbx
	movl	8(%rdi), %r13d
	movl	%eax, 8(%rsp)
.LVL11:
.LBB24:
	.loc 1 96 30 view .LVU19
	movq	16(%rbx), %r15
	call	omp_get_num_threads@PLT
.LVL12:
	.loc 1 96 30 view .LVU20
	movl	%eax, %r12d
	call	omp_get_thread_num@PLT
.LVL13:
	movl	%eax, %ebp
	movl	(%r15), %eax
	cltd
	idivl	%r12d
	cmpl	%edx, %ebp
	jl	.L10
.L24:
	movl	%eax, %ecx
	imull	%ebp, %ecx
	addl	%edx, %ecx
	addl	%ecx, %eax
	cmpl	%eax, %ecx
	jge	.L11
.LBB25:
.LBB26:
	.loc 1 77 18 view .LVU21
	movq	8(%rbx), %r14
	.loc 1 79 22 view .LVU22
	movq	16(%r15), %r8
	movslq	%ecx, %rcx
	pxor	%xmm1, %xmm1
	.loc 1 81 10 view .LVU23
	movq	8(%r15), %r11
	.p2align 4,,10
	.p2align 3
.L14:
.LVL14:
	.loc 1 81 10 view .LVU24
.LBE26:
.LBE25:
	.loc 1 97 13 is_stmt 1 discriminator 1 view .LVU25
.LBB30:
.LBI25:
	.loc 1 76 20 discriminator 1 view .LVU26
.LBB29:
	.loc 1 77 5 discriminator 1 view .LVU27
	.loc 1 77 13 is_stmt 0 discriminator 1 view .LVU28
	movq	(%r14,%rcx,8), %rsi
.LVL15:
	.loc 1 78 5 is_stmt 1 discriminator 1 view .LVU29
	.loc 1 79 5 discriminator 1 view .LVU30
	.loc 1 79 9 is_stmt 0 discriminator 1 view .LVU31
	movslq	(%r8,%rcx,4), %rdx
.LVL16:
	.loc 1 79 45 discriminator 1 view .LVU32
	movl	4(%r8,%rcx,4), %edi
.LVL17:
	.loc 1 80 5 is_stmt 1 discriminator 1 view .LVU33
	.loc 1 81 5 discriminator 1 view .LVU34
	.loc 1 82 5 discriminator 1 view .LVU35
	.loc 1 82 10 is_stmt 0 discriminator 1 view .LVU36
	movq	$0x000000000, (%rsi)
	.loc 1 83 5 is_stmt 1 discriminator 1 view .LVU37
.LVL18:
	.loc 1 84 5 discriminator 1 view .LVU38
	.loc 1 84 27 discriminator 1 view .LVU39
	.loc 1 84 5 is_stmt 0 discriminator 1 view .LVU40
	cmpl	%edi, %edx
	jge	.L12
	movq	%rdx, %r15
	.loc 1 85 16 view .LVU41
	movq	(%rbx), %r10
	movq	64(%rbx), %r9
	movapd	%xmm1, %xmm0
	negq	%r15
	leaq	(%rsi,%r15,8), %r15
.LVL19:
	.p2align 4,,10
	.p2align 3
.L13:
	.loc 1 85 9 is_stmt 1 view .LVU42
.LBB27:
.LBI27:
	.loc 1 4 22 view .LVU43
.LBB28:
	.loc 1 5 5 view .LVU44
	.loc 1 6 5 view .LVU45
	.loc 1 5 29 is_stmt 0 view .LVU46
	movslq	(%r11,%rdx,4), %rsi
	.loc 1 6 19 view .LVU47
	movslq	(%r9,%rsi,4), %rsi
.LBE28:
.LBE27:
	.loc 1 85 50 view .LVU48
	addsd	(%r10,%rsi,8), %xmm0
	.loc 1 85 14 view .LVU49
	movsd	%xmm0, 8(%r15,%rdx,8)
	.loc 1 84 42 is_stmt 1 view .LVU50
.LVL20:
	.loc 1 84 27 view .LVU51
	addq	$1, %rdx
.LVL21:
	.loc 1 84 5 is_stmt 0 view .LVU52
	cmpl	%edx, %edi
	jg	.L13
.LVL22:
.L12:
	.loc 1 84 5 view .LVU53
	addq	$1, %rcx
.LVL23:
	.loc 1 84 5 view .LVU54
	cmpl	%ecx, %eax
	jg	.L14
.L11:
	.loc 1 84 5 view .LVU55
	call	GOMP_barrier@PLT
.LVL24:
	movl	8(%rsp), %eax
	cltd
	idivl	%r12d
	cmpl	%edx, %ebp
	jl	.L15
.L23:
	imull	%eax, %ebp
	addl	%edx, %ebp
	addl	%ebp, %eax
	cmpl	%eax, %ebp
	jge	.L9
	addl	%r13d, %eax
	addl	%r13d, %ebp
.LVL25:
	.loc 1 84 5 view .LVU56
	movl	%eax, 12(%rsp)
	movslq	%ebp, %r12
	salq	$2, %r12
.LVL26:
	.p2align 4,,10
	.p2align 3
.L22:
	.loc 1 84 5 view .LVU57
.LBE29:
.LBE30:
.LBE24:
.LBB31:
	.loc 1 103 13 is_stmt 1 discriminator 3 view .LVU58
.LBB32:
.LBB33:
	.loc 1 55 9 is_stmt 0 discriminator 3 view .LVU59
	movq	40(%rbx), %rax
	.loc 1 58 13 discriminator 3 view .LVU60
	movq	8(%rbx), %rdx
	.loc 1 59 14 discriminator 3 view .LVU61
	movq	16(%rbx), %r15
	.loc 1 57 15 discriminator 3 view .LVU62
	movq	56(%rbx), %rdi
	.loc 1 58 25 discriminator 3 view .LVU63
	movslq	(%rax,%r12), %rax
.LBE33:
.LBE32:
	.loc 1 103 33 discriminator 3 view .LVU64
	movq	48(%rbx), %r13
.LBB41:
.LBB38:
	.loc 1 57 15 discriminator 3 view .LVU65
	addq	%r12, %rdi
	.loc 1 58 13 discriminator 3 view .LVU66
	movq	(%rdx,%rax,8), %rsi
	.loc 1 60 22 discriminator 3 view .LVU67
	movq	16(%r15), %rdx
.LBE38:
.LBE41:
	.loc 1 103 33 discriminator 3 view .LVU68
	addq	%r12, %r13
.LVL27:
.LBB42:
.LBI32:
	.loc 1 54 19 is_stmt 1 discriminator 3 view .LVU69
.LBB39:
	.loc 1 55 5 discriminator 3 view .LVU70
	.loc 1 56 5 discriminator 3 view .LVU71
	.loc 1 57 5 discriminator 3 view .LVU72
	.loc 1 58 5 discriminator 3 view .LVU73
	.loc 1 59 5 discriminator 3 view .LVU74
	.loc 1 60 5 discriminator 3 view .LVU75
	.loc 1 60 9 is_stmt 0 discriminator 3 view .LVU76
	movl	(%rdx,%rax,4), %r14d
.LVL28:
	.loc 1 60 45 discriminator 3 view .LVU77
	movl	4(%rdx,%rax,4), %eax
.LVL29:
	.loc 1 61 5 is_stmt 1 discriminator 3 view .LVU78
.LBB34:
.LBI34:
	.loc 1 10 22 discriminator 3 view .LVU79
.LBB35:
	.loc 1 11 5 discriminator 3 view .LVU80
	.loc 1 11 5 is_stmt 0 discriminator 3 view .LVU81
.LBE35:
.LBE34:
	.loc 1 62 5 is_stmt 1 discriminator 3 view .LVU82
	.loc 1 62 18 is_stmt 0 discriminator 3 view .LVU83
	movq	%rsi, (%rsp)
.LBB37:
.LBB36:
	.loc 1 11 22 discriminator 3 view .LVU84
	movl	%eax, %edx
	movl	%eax, 8(%rsp)
	subl	%r14d, %edx
.LVL30:
	.loc 1 11 22 discriminator 3 view .LVU85
	movslq	%edx, %rdx
	.loc 1 11 22 discriminator 3 view .LVU86
.LBE36:
.LBE37:
	.loc 1 62 18 discriminator 3 view .LVU87
	movsd	(%rsi,%rdx,8), %xmm0
	call	next_random_float@PLT
.LVL31:
	.loc 1 63 5 is_stmt 1 discriminator 3 view .LVU88
	.loc 1 63 24 is_stmt 0 discriminator 3 view .LVU89
	movl	8(%rsp), %eax
	.loc 1 64 11 discriminator 3 view .LVU90
	movl	%r14d, %r8d
	.loc 1 63 24 discriminator 3 view .LVU91
	subl	$1, %eax
.LVL32:
	.loc 1 64 5 is_stmt 1 discriminator 3 view .LVU92
	.loc 1 64 11 discriminator 3 view .LVU93
	cmpl	%eax, %r14d
	jg	.L17
	.loc 1 64 11 is_stmt 0 view .LVU94
	movq	(%rsp), %rsi
.LVL33:
	.p2align 4,,10
	.p2align 3
.L21:
	.loc 1 65 9 is_stmt 1 view .LVU95
	.loc 1 65 18 is_stmt 0 view .LVU96
	leal	(%rax,%r8), %edi
	.loc 1 65 13 view .LVU97
	movl	%edi, %edx
	shrl	$31, %edx
	addl	%edi, %edx
	sarl	%edx
.LVL34:
	.loc 1 66 9 is_stmt 1 view .LVU98
	.loc 1 66 26 is_stmt 0 view .LVU99
	movl	%edx, %edi
	subl	%r14d, %edi
	.loc 1 66 21 view .LVU100
	movslq	%edi, %rdi
	.loc 1 66 12 view .LVU101
	movsd	8(%rsi,%rdi,8), %xmm1
	comisd	%xmm0, %xmm1
	jb	.L30
	.loc 1 67 13 is_stmt 1 view .LVU102
	.loc 1 67 15 is_stmt 0 view .LVU103
	leal	-1(%rdx), %eax
.LVL35:
	.loc 1 64 11 is_stmt 1 view .LVU104
	cmpl	%eax, %r8d
	jle	.L21
.LVL36:
.L17:
	.loc 1 72 5 view .LVU105
	.loc 1 72 10 is_stmt 0 view .LVU106
	movq	8(%r15), %rdx
	.loc 1 72 23 view .LVU107
	movslq	%r8d, %rax
.LVL37:
	.loc 1 72 23 view .LVU108
	addl	$1, %ebp
.LVL38:
	.loc 1 72 23 view .LVU109
	addq	$4, %r12
	.loc 1 72 10 view .LVU110
	movl	(%rdx,%rax,4), %eax
.LVL39:
	.loc 1 73 5 is_stmt 1 view .LVU111
	.loc 1 73 5 is_stmt 0 view .LVU112
.LBE39:
.LBE42:
	.loc 1 103 39 view .LVU113
	movl	%eax, 0(%r13)
	cmpl	%ebp, 12(%rsp)
	jg	.L22
.LVL40:
.L9:
	.loc 1 103 39 view .LVU114
.LBE31:
	.loc 1 92 13 view .LVU115
	addq	$24, %rsp
	.cfi_remember_state
	.cfi_def_cfa_offset 56
	popq	%rbx
	.cfi_def_cfa_offset 48
.LVL41:
	.loc 1 92 13 view .LVU116
	popq	%rbp
	.cfi_def_cfa_offset 40
	popq	%r12
	.cfi_def_cfa_offset 32
	popq	%r13
	.cfi_def_cfa_offset 24
	popq	%r14
	.cfi_def_cfa_offset 16
	popq	%r15
	.cfi_def_cfa_offset 8
	ret
.LVL42:
	.p2align 4,,10
	.p2align 3
.L30:
	.cfi_restore_state
.LBB44:
.LBB43:
.LBB40:
	.loc 1 69 13 is_stmt 1 view .LVU117
	.loc 1 69 15 is_stmt 0 view .LVU118
	leal	1(%rdx), %r8d
.LVL43:
	.loc 1 64 11 is_stmt 1 view .LVU119
	cmpl	%r8d, %eax
	jge	.L21
	jmp	.L17
.LVL44:
	.p2align 4,,10
	.p2align 3
.L10:
	.loc 1 64 11 is_stmt 0 view .LVU120
	addl	$1, %eax
.LBE40:
.LBE43:
.LBE44:
.LBB45:
	.loc 1 96 33 view .LVU121
	xorl	%edx, %edx
	jmp	.L24
	.p2align 4,,10
	.p2align 3
.L15:
	addl	$1, %eax
	xorl	%edx, %edx
	jmp	.L23
.LBE45:
	.cfi_endproc
.LFE61:
	.size	process_batch._omp_fn.0, .-process_batch._omp_fn.0
	.section	.rodata.str1.8,"aMS",@progbits,1
	.align 8
.LC1:
	.string	"WARNING: Unknown update mode.  Using batch mode\n"
	.text
	.p2align 4
	.globl	simulate
	.type	simulate, @function
simulate:
.LVL45:
.LFB59:
	.loc 1 125 89 is_stmt 1 view -0
	.cfi_startproc
	.loc 1 125 89 is_stmt 0 view .LVU123
	endbr64
	pushq	%r15
	.cfi_def_cfa_offset 16
	.cfi_offset 15, -16
	movq	%rdi, %r15
	pushq	%r14
	.cfi_def_cfa_offset 24
	.cfi_offset 14, -24
	pushq	%r13
	.cfi_def_cfa_offset 32
	.cfi_offset 13, -32
	pushq	%r12
	.cfi_def_cfa_offset 40
	.cfi_offset 12, -40
	movl	%edx, %r12d
	pushq	%rbp
	.cfi_def_cfa_offset 48
	.cfi_offset 6, -48
	pushq	%rbx
	.cfi_def_cfa_offset 56
	.cfi_offset 3, -56
	movl	%r8d, %ebx
	subq	$72, %rsp
	.cfi_def_cfa_offset 128
.LBB58:
.LBB59:
	.loc 1 40 9 view .LVU124
	movl	24(%rdi), %r13d
	.loc 1 38 10 view .LVU125
	movq	40(%rdi), %rbp
.LBE59:
.LBE58:
	.loc 1 125 89 view .LVU126
	movl	%esi, 20(%rsp)
.LBB71:
.LBB68:
.LBB60:
.LBB61:
	.file 2 "/usr/include/x86_64-linux-gnu/bits/string_fortified.h"
	.loc 2 71 10 view .LVU127
	xorl	%esi, %esi
.LVL46:
	.loc 2 71 10 view .LVU128
.LBE61:
.LBE60:
.LBE68:
.LBE71:
	.loc 1 125 89 view .LVU129
	movl	%ecx, 28(%rsp)
.LBB72:
.LBB69:
	.loc 1 39 10 view .LVU130
	movq	64(%rdi), %rcx
.LVL47:
	.loc 1 39 10 view .LVU131
.LBE69:
.LBE72:
	.loc 1 125 89 view .LVU132
	movb	%r8b, 27(%rsp)
	movq	%fs:40, %rax
	movq	%rax, 56(%rsp)
	xorl	%eax, %eax
	.loc 1 126 5 is_stmt 1 view .LVU133
	.loc 1 128 5 view .LVU134
.LVL48:
	.loc 1 129 5 view .LVU135
.LBB73:
.LBI58:
	.loc 1 35 20 view .LVU136
.LBB70:
	.loc 1 36 5 view .LVU137
	.loc 1 37 5 view .LVU138
	.loc 1 38 5 view .LVU139
	.loc 1 39 5 view .LVU140
	.loc 1 40 5 view .LVU141
	.loc 1 42 5 view .LVU142
.LBB65:
.LBI60:
	.loc 2 59 1 view .LVU143
.LBB62:
	.loc 2 71 3 view .LVU144
.LBE62:
.LBE65:
	.loc 1 37 9 is_stmt 0 view .LVU145
	movq	16(%rdi), %rax
.LBB66:
.LBB63:
	.loc 2 71 10 view .LVU146
	movq	%rcx, %rdi
.LVL49:
	.loc 2 71 10 view .LVU147
.LBE63:
.LBE66:
	.loc 1 42 5 view .LVU148
	movslq	(%rax), %rdx
.LVL50:
	.loc 1 42 5 view .LVU149
	salq	$2, %rdx
.LBB67:
.LBB64:
	.loc 2 71 10 view .LVU150
	call	memset@PLT
.LVL51:
	.loc 2 71 10 view .LVU151
.LBE64:
.LBE67:
	.loc 1 43 5 is_stmt 1 view .LVU152
	.loc 1 44 5 view .LVU153
	.loc 1 44 18 view .LVU154
	.loc 1 44 5 is_stmt 0 view .LVU155
	testl	%r13d, %r13d
	jle	.L39
	leal	-1(%r13), %edx
	movq	%rax, %rcx
	movq	%rbp, %rax
	leaq	4(%rbp,%rdx,4), %rsi
.LVL52:
	.p2align 4,,10
	.p2align 3
.L38:
	.loc 1 45 2 is_stmt 1 view .LVU156
	.loc 1 45 24 is_stmt 0 view .LVU157
	movslq	(%rax), %rdx
	addq	$4, %rax
	.loc 1 45 30 view .LVU158
	addl	$1, (%rcx,%rdx,4)
	.loc 1 44 29 is_stmt 1 view .LVU159
	.loc 1 44 18 view .LVU160
	.loc 1 44 5 is_stmt 0 view .LVU161
	cmpq	%rax, %rsi
	jne	.L38
.L39:
.LVL53:
	.loc 1 44 5 view .LVU162
.LBE70:
.LBE73:
	.loc 1 130 5 is_stmt 1 view .LVU163
	.loc 1 131 5 view .LVU164
	cmpl	$1, %r12d
	je	.L67
	movl	$1, %r13d
	cmpl	$2, %r12d
	je	.L35
	testl	%r12d, %r12d
	je	.L68
	.loc 1 142 2 view .LVU165
	leaq	.LC1(%rip), %rdi
	xorl	%eax, %eax
	call	outmsg@PLT
.LVL54:
.L67:
	.loc 1 143 2 view .LVU166
	.loc 1 143 13 is_stmt 0 view .LVU167
	movl	80(%r15), %r13d
.LVL55:
	.loc 1 144 2 is_stmt 1 view .LVU168
.L35:
	.loc 1 144 2 is_stmt 0 view .LVU169
	leaq	32(%rsp), %rbp
	.loc 1 147 43 view .LVU170
	movl	28(%r15), %edx
	xorl	%ecx, %ecx
.LBB74:
	.loc 1 147 13 view .LVU171
	movq	%r15, 32(%rsp)
	movq	%rbp, %rsi
	leaq	simulate._omp_fn.0(%rip), %rdi
	call	GOMP_parallel@PLT
.LVL56:
.LBE74:
	.loc 1 153 5 is_stmt 1 view .LVU172
	.loc 1 153 8 is_stmt 0 view .LVU173
	testb	%bl, %bl
	jne	.L69
.L40:
.LVL57:
	.loc 1 155 17 is_stmt 1 discriminator 1 view .LVU174
	.loc 1 155 5 is_stmt 0 discriminator 1 view .LVU175
	movl	20(%rsp), %eax
	testl	%eax, %eax
	jle	.L49
	.loc 1 155 5 view .LVU176
	movl	$0, 16(%rsp)
	movl	%r13d, %r14d
.LVL58:
	.p2align 4,,10
	.p2align 3
.L48:
.LBB75:
.LBB76:
	.loc 1 119 17 is_stmt 1 view .LVU177
	.loc 1 119 22 is_stmt 0 view .LVU178
	movl	24(%r15), %eax
	movslq	%r14d, %rsi
	.loc 1 119 5 view .LVU179
	xorl	%r12d, %r12d
	.loc 1 119 12 view .LVU180
	xorl	%r13d, %r13d
	movq	%rsi, 8(%rsp)
	.loc 1 119 5 view .LVU181
	testl	%eax, %eax
	jle	.L43
.LVL59:
	.p2align 4,,10
	.p2align 3
.L42:
.LBB77:
	.loc 1 120 2 is_stmt 1 view .LVU182
	.loc 1 121 2 view .LVU183
	.loc 1 120 6 is_stmt 0 view .LVU184
	subl	%r13d, %eax
.LVL60:
.LBB78:
.LBB79:
	.loc 1 92 39 view .LVU185
	movl	28(%r15), %edx
	movq	%rbp, %rsi
.LBB80:
	.loc 1 92 13 view .LVU186
	movl	%r13d, 40(%rsp)
.LBE80:
.LBE79:
.LBE78:
	.loc 1 121 9 view .LVU187
	cmpl	%r14d, %eax
	leaq	process_batch._omp_fn.0(%rip), %rdi
.LBB86:
.LBB84:
.LBB81:
	.loc 1 92 13 view .LVU188
	movq	%r15, 32(%rsp)
.LBE81:
.LBE84:
.LBE86:
	.loc 1 121 9 view .LVU189
	cmovg	%r14d, %eax
.LVL61:
	.loc 1 121 9 view .LVU190
	xorl	%ecx, %ecx
	movl	%eax, %ebx
.LVL62:
	.loc 1 122 2 is_stmt 1 view .LVU191
.LBB87:
.LBI78:
	.loc 1 89 13 view .LVU192
.LBB85:
	.loc 1 90 5 view .LVU193
.LBB82:
	.loc 1 92 13 is_stmt 0 view .LVU194
	movl	%eax, 44(%rsp)
	call	GOMP_parallel@PLT
.LVL63:
	.loc 1 92 13 view .LVU195
.LBE82:
	.loc 1 108 5 is_stmt 1 view .LVU196
	.loc 1 108 24 view .LVU197
	.loc 1 108 36 is_stmt 0 view .LVU198
	leal	(%rbx,%r13), %eax
	.loc 1 108 5 view .LVU199
	cmpl	%r13d, %eax
	jle	.L45
.LBB83:
	.loc 1 109 21 view .LVU200
	movq	40(%r15), %r9
	.loc 1 110 21 view .LVU201
	movq	48(%r15), %r10
	.loc 1 111 10 view .LVU202
	movq	%r12, %rdx
	movq	64(%r15), %rcx
.LVL64:
	.p2align 4,,10
	.p2align 3
.L44:
	.loc 1 109 9 is_stmt 1 view .LVU203
	.loc 1 110 9 view .LVU204
	.loc 1 110 13 is_stmt 0 view .LVU205
	movl	(%r10,%rdx,4), %esi
.LVL65:
	.loc 1 111 9 is_stmt 1 view .LVU206
	.loc 1 111 21 is_stmt 0 view .LVU207
	movslq	(%r9,%rdx,4), %rdi
	.loc 1 111 27 view .LVU208
	subl	$1, (%rcx,%rdi,4)
.LVL66:
	.loc 1 112 9 is_stmt 1 view .LVU209
	.loc 1 112 21 is_stmt 0 view .LVU210
	movslq	%esi, %rdi
	.loc 1 112 27 view .LVU211
	addl	$1, (%rcx,%rdi,4)
	.loc 1 113 9 is_stmt 1 view .LVU212
	.loc 1 113 30 is_stmt 0 view .LVU213
	movl	%esi, (%r9,%rdx,4)
.LBE83:
	.loc 1 108 45 is_stmt 1 view .LVU214
.LVL67:
	.loc 1 108 24 view .LVU215
	addq	$1, %rdx
.LVL68:
	.loc 1 108 5 is_stmt 0 view .LVU216
	cmpl	%edx, %eax
	jg	.L44
.LVL69:
.L45:
	.loc 1 108 5 view .LVU217
.LBE85:
.LBE87:
.LBE77:
	.loc 1 119 30 is_stmt 1 view .LVU218
	.loc 1 119 22 is_stmt 0 view .LVU219
	movl	24(%r15), %eax
	.loc 1 119 32 view .LVU220
	addl	%r14d, %r13d
.LVL70:
	.loc 1 119 17 is_stmt 1 view .LVU221
	addq	8(%rsp), %r12
	.loc 1 119 5 is_stmt 0 view .LVU222
	cmpl	%r13d, %eax
	jg	.L42
.LVL71:
.L43:
	.loc 1 119 5 view .LVU223
.LBE76:
.LBE75:
	.loc 1 157 2 is_stmt 1 view .LVU224
	movl	16(%rsp), %edi
	.loc 1 157 5 is_stmt 0 view .LVU225
	cmpb	$0, 27(%rsp)
	leal	1(%rdi), %ebx
	je	.L46
	.loc 1 158 6 is_stmt 1 view .LVU226
	.loc 1 158 28 is_stmt 0 view .LVU227
	movl	%ebx, %eax
	.loc 1 158 47 view .LVU228
	movl	$1, %esi
	.loc 1 158 28 view .LVU229
	cltd
	idivl	28(%rsp)
	.loc 1 158 47 view .LVU230
	testl	%edx, %edx
	je	.L47
	.loc 1 158 61 discriminator 2 view .LVU231
	movl	20(%rsp), %eax
	.loc 1 158 47 discriminator 2 view .LVU232
	xorl	%esi, %esi
	.loc 1 158 61 discriminator 2 view .LVU233
	subl	$1, %eax
	.loc 1 158 47 discriminator 2 view .LVU234
	cmpl	%edi, %eax
	sete	%sil
.L47:
.LVL72:
	.loc 1 159 6 is_stmt 1 discriminator 6 view .LVU235
	movq	%r15, %rdi
	call	show@PLT
.LVL73:
.L46:
	.loc 1 155 28 discriminator 2 view .LVU236
	.loc 1 155 17 discriminator 2 view .LVU237
	.loc 1 155 5 is_stmt 0 discriminator 2 view .LVU238
	cmpl	%ebx, 20(%rsp)
	je	.L49
.LVL74:
	.loc 1 155 5 discriminator 2 view .LVU239
	movl	%ebx, 16(%rsp)
	jmp	.L48
.LVL75:
	.p2align 4,,10
	.p2align 3
.L49:
	.loc 1 162 5 is_stmt 1 view .LVU240
	xorl	%eax, %eax
	call	done@PLT
.LVL76:
	.loc 1 163 1 is_stmt 0 view .LVU241
	movq	56(%rsp), %rax
	xorq	%fs:40, %rax
	jne	.L70
	addq	$72, %rsp
	.cfi_remember_state
	.cfi_def_cfa_offset 56
	popq	%rbx
	.cfi_def_cfa_offset 48
	popq	%rbp
	.cfi_def_cfa_offset 40
	popq	%r12
	.cfi_def_cfa_offset 32
	popq	%r13
	.cfi_def_cfa_offset 24
	popq	%r14
	.cfi_def_cfa_offset 16
	popq	%r15
	.cfi_def_cfa_offset 8
.LVL77:
	.loc 1 163 1 view .LVU242
	ret
.LVL78:
.L69:
	.cfi_restore_state
	.loc 1 154 2 is_stmt 1 view .LVU243
	movl	$1, %esi
	movq	%r15, %rdi
	call	show@PLT
.LVL79:
	jmp	.L40
.LVL80:
.L68:
	.loc 1 133 2 view .LVU244
	.loc 1 133 13 is_stmt 0 view .LVU245
	movl	24(%r15), %r13d
.LVL81:
	.loc 1 134 2 is_stmt 1 view .LVU246
	jmp	.L35
.LVL82:
.L70:
	.loc 1 163 1 is_stmt 0 view .LVU247
	call	__stack_chk_fail@PLT
.LVL83:
	.cfi_endproc
.LFE59:
	.size	simulate, .-simulate
.Letext0:
	.file 3 "/usr/lib/gcc/x86_64-linux-gnu/9/include/stddef.h"
	.file 4 "/usr/include/x86_64-linux-gnu/bits/types.h"
	.file 5 "/usr/include/x86_64-linux-gnu/bits/types/struct_FILE.h"
	.file 6 "/usr/include/x86_64-linux-gnu/bits/types/FILE.h"
	.file 7 "/usr/include/stdio.h"
	.file 8 "/usr/include/x86_64-linux-gnu/bits/sys_errlist.h"
	.file 9 "/usr/include/math.h"
	.file 10 "/usr/include/x86_64-linux-gnu/bits/stdint-uintn.h"
	.file 11 "rutil.h"
	.file 12 "crun.h"
	.file 13 "<built-in>"
	.section	.note.GNU-stack,"",@progbits
	.section	.note.gnu.property,"a"
	.align 8
	.long	 1f - 0f
	.long	 4f - 1f
	.long	 5
0:
	.string	 "GNU"
1:
	.align 8
	.long	 0xc0000002
	.long	 3f - 2f
2:
	.long	 0x3
3:
	.align 8
4:
